target datalayout = "e-m:e-p270:32:32-p271:32:32-p272:64:64-i64:64-i128:128-f80:128-n8:16:32:64-S128"
target triple = "x86_64-unknown-linux-gnu"

%struct.acpi_pcc_info = type { i8, i16, ptr }
%struct.lock_class_key = type {}

@pcc_ctx = internal global %struct.acpi_pcc_info zeroinitializer, align 8
@.str = private unnamed_addr constant [50 x i8] c"\011OperationRegion handler could not be installed\0A\00", align 1
@.str.1 = private unnamed_addr constant [33 x i8] c"\013PCC command executed timeout!\0A\00", align 1
@acpi_pcc_address_space_setup.ret = internal unnamed_addr global i32 0, align 4
@.str.2 = private unnamed_addr constant [46 x i8] c"\013Failed to find PCC channel for subspace %d\0A\00", align 1
@.str.3 = private unnamed_addr constant [47 x i8] c"\013This channel-%d does not support interrupt.\0A\00", align 1
@.str.4 = private unnamed_addr constant [48 x i8] c"\013Failed to ioremap PCC comm region mem for %d\0A\00", align 1
@kmalloc_caches = external dso_local local_unnamed_addr global [3 x [14 x ptr]], align 16
@init_completion.__key = internal global %struct.lock_class_key zeroinitializer, align 1
@.str.6 = private unnamed_addr constant [9 x i8] c"&x->wait\00", align 1

; Function Attrs: cold fn_ret_thunk_extern nounwind null_pointer_is_valid optsize
define dso_local void @acpi_init_pcc() local_unnamed_addr #0 section ".init.text" align 16 {
  %1 = tail call i32 @acpi_install_address_space_handler(ptr noundef nonnull inttoptr (i64 -1 to ptr), i8 noundef zeroext 10, ptr noundef nonnull @acpi_pcc_address_space_handler, ptr noundef nonnull @acpi_pcc_address_space_setup, ptr noundef nonnull @pcc_ctx) #5
  %2 = icmp eq i32 %1, 0
  br i1 %2, label %5, label %3

3:                                                ; preds = %0
  %4 = tail call i32 (ptr, ...) @_printk(ptr noundef nonnull @.str) #6
  br label %5

5:                                                ; preds = %3, %0
  ret void
}

; Function Attrs: null_pointer_is_valid
declare dso_local i32 @acpi_install_address_space_handler(ptr noundef, i8 noundef zeroext, ptr noundef, ptr noundef, ptr noundef) local_unnamed_addr #1

; Function Attrs: fn_ret_thunk_extern nounwind null_pointer_is_valid
define internal noundef i32 @acpi_pcc_address_space_handler(i32 %0, i64 %1, i32 %2, ptr noundef %3, ptr nocapture readnone %4, ptr noundef %5) #2 align 16 {
  %7 = getelementptr inbounds i8, ptr %5, i64 16
  store i32 0, ptr %7, align 8
  %8 = getelementptr inbounds i8, ptr %5, i64 8
  %9 = load ptr, ptr %8, align 8
  %10 = getelementptr inbounds i8, ptr %5, i64 106
  %11 = load i16, ptr %10, align 2
  %12 = zext i16 %11 to i64
  tail call void @memcpy_toio(ptr noundef %9, ptr noundef %3, i64 noundef %12) #5
  %13 = load ptr, ptr %5, align 8
  %14 = load ptr, ptr %13, align 8
  %15 = tail call i32 @mbox_send_message(ptr noundef %14, ptr noundef null) #5
  %16 = icmp slt i32 %15, 0
  br i1 %16, label %34, label %17

17:                                               ; preds = %6
  %18 = load ptr, ptr %5, align 8
  %19 = getelementptr inbounds i8, ptr %18, i64 24
  %20 = load i32, ptr %19, align 8
  %21 = mul i32 %20, 500
  %22 = tail call i64 @__usecs_to_jiffies(i32 noundef %21) #5
  %23 = tail call i64 @wait_for_completion_timeout(ptr noundef %7, i64 noundef %22) #5
  %24 = trunc i64 %23 to i32
  %25 = icmp eq i32 %24, 0
  br i1 %25, label %26, label %28

26:                                               ; preds = %17
  %27 = tail call i32 (ptr, ...) @_printk(ptr noundef nonnull @.str.1) #6
  br label %34

28:                                               ; preds = %17
  %29 = load ptr, ptr %5, align 8
  %30 = load ptr, ptr %29, align 8
  tail call void @mbox_chan_txdone(ptr noundef %30, i32 noundef %24) #5
  %31 = load ptr, ptr %8, align 8
  %32 = load i16, ptr %10, align 2
  %33 = zext i16 %32 to i64
  tail call void @memcpy_fromio(ptr noundef %3, ptr noundef %31, i64 noundef %33) #5
  br label %34

34:                                               ; preds = %28, %26, %6
  %35 = phi i32 [ 17, %26 ], [ 0, %28 ], [ 1, %6 ]
  ret i32 %35
}

; Function Attrs: fn_ret_thunk_extern nounwind null_pointer_is_valid
define internal i32 @acpi_pcc_address_space_setup(ptr nocapture readnone %0, i32 %1, ptr nocapture noundef readonly %2, ptr nocapture noundef writeonly %3) #2 align 16 {
  %5 = load ptr, ptr getelementptr inbounds ([3 x [14 x ptr]], ptr @kmalloc_caches, i64 0, i64 0, i64 7), align 8
  %6 = tail call noalias noundef align 8 dereferenceable_or_null(120) ptr @kmalloc_trace(ptr noundef %5, i32 noundef 3520, i64 noundef 120) #7
  %7 = icmp eq ptr %6, null
  br i1 %7, label %54, label %8

8:                                                ; preds = %4
  %9 = getelementptr inbounds i8, ptr %6, i64 48
  %10 = getelementptr inbounds i8, ptr %6, i64 80
  store ptr @pcc_rx_callback, ptr %10, align 8
  %11 = getelementptr inbounds i8, ptr %6, i64 72
  store i8 1, ptr %11, align 8
  %12 = getelementptr inbounds i8, ptr %2, i64 2
  %13 = load i16, ptr %12, align 2
  %14 = getelementptr inbounds i8, ptr %6, i64 104
  %15 = getelementptr inbounds i8, ptr %6, i64 106
  store i16 %13, ptr %15, align 2
  %16 = load i8, ptr %2, align 8
  store i8 %16, ptr %14, align 8
  %17 = getelementptr inbounds i8, ptr %2, i64 8
  %18 = load ptr, ptr %17, align 8
  %19 = getelementptr inbounds i8, ptr %6, i64 112
  store ptr %18, ptr %19, align 8
  %20 = getelementptr inbounds i8, ptr %6, i64 16
  store i32 0, ptr %20, align 8
  %21 = getelementptr inbounds i8, ptr %6, i64 24
  tail call void @__init_swait_queue_head(ptr noundef %21, ptr noundef nonnull @.str.6, ptr noundef nonnull @init_completion.__key) #5
  %22 = load i8, ptr %2, align 8
  %23 = zext i8 %22 to i32
  %24 = tail call ptr @pcc_mbox_request_channel(ptr noundef %9, i32 noundef %23) #5
  store ptr %24, ptr %6, align 8
  %25 = icmp ugt ptr %24, inttoptr (i64 -4096 to ptr)
  br i1 %25, label %26, label %30

26:                                               ; preds = %8
  %27 = load i8, ptr %2, align 8
  %28 = zext i8 %27 to i32
  %29 = tail call i32 (ptr, ...) @_printk(ptr noundef nonnull @.str.2, i32 noundef %28) #6
  store i32 5, ptr @acpi_pcc_address_space_setup.ret, align 4
  br label %52

30:                                               ; preds = %8
  %31 = load ptr, ptr %24, align 8
  %32 = load ptr, ptr %31, align 8
  %33 = getelementptr inbounds i8, ptr %32, i64 28
  %34 = load i8, ptr %33, align 4, !range !5, !noundef !6
  %35 = icmp eq i8 %34, 0
  br i1 %35, label %45, label %36

36:                                               ; preds = %30
  %37 = getelementptr inbounds i8, ptr %24, i64 8
  %38 = load i64, ptr %37, align 8
  %39 = getelementptr inbounds i8, ptr %24, i64 16
  %40 = load i64, ptr %39, align 8
  %41 = tail call ptr @ioremap_cache(i64 noundef %38, i64 noundef %40) #5
  %42 = getelementptr inbounds i8, ptr %6, i64 8
  store ptr %41, ptr %42, align 8
  %43 = icmp eq ptr %41, null
  br i1 %43, label %45, label %44

44:                                               ; preds = %36
  store ptr %6, ptr %3, align 8
  br label %54

45:                                               ; preds = %36, %30
  %46 = phi ptr [ @.str.3, %30 ], [ @.str.4, %36 ]
  %47 = phi i32 [ 15, %30 ], [ 4, %36 ]
  %48 = load i8, ptr %2, align 8
  %49 = zext i8 %48 to i32
  %50 = tail call i32 (ptr, ...) @_printk(ptr noundef nonnull %46, i32 noundef %49) #6
  store i32 %47, ptr @acpi_pcc_address_space_setup.ret, align 4
  %51 = load ptr, ptr %6, align 8
  tail call void @pcc_mbox_free_channel(ptr noundef %51) #5
  br label %52

52:                                               ; preds = %45, %26
  tail call void @kfree(ptr noundef nonnull %6) #5
  %53 = load i32, ptr @acpi_pcc_address_space_setup.ret, align 4
  br label %54

54:                                               ; preds = %52, %44, %4
  %55 = phi i32 [ %53, %52 ], [ 0, %44 ], [ 4, %4 ]
  ret i32 %55
}

; Function Attrs: cold null_pointer_is_valid
declare dso_local i32 @_printk(ptr noundef, ...) local_unnamed_addr #3

; Function Attrs: null_pointer_is_valid
declare dso_local void @memcpy_toio(ptr noundef, ptr noundef, i64 noundef) local_unnamed_addr #1

; Function Attrs: null_pointer_is_valid
declare dso_local i32 @mbox_send_message(ptr noundef, ptr noundef) local_unnamed_addr #1

; Function Attrs: null_pointer_is_valid
declare dso_local i64 @wait_for_completion_timeout(ptr noundef, i64 noundef) local_unnamed_addr #1

; Function Attrs: null_pointer_is_valid
declare dso_local void @mbox_chan_txdone(ptr noundef, i32 noundef) local_unnamed_addr #1

; Function Attrs: null_pointer_is_valid
declare dso_local void @memcpy_fromio(ptr noundef, ptr noundef, i64 noundef) local_unnamed_addr #1

; Function Attrs: null_pointer_is_valid
declare dso_local i64 @__usecs_to_jiffies(i32 noundef) local_unnamed_addr #1

; Function Attrs: fn_ret_thunk_extern nounwind null_pointer_is_valid
define internal void @pcc_rx_callback(ptr noundef %0, ptr nocapture readnone %1) #2 align 16 {
  %3 = getelementptr i8, ptr %0, i64 -32
  tail call void @complete(ptr noundef %3) #5
  ret void
}

; Function Attrs: null_pointer_is_valid
declare dso_local ptr @pcc_mbox_request_channel(ptr noundef, i32 noundef) local_unnamed_addr #1

; Function Attrs: null_pointer_is_valid
declare dso_local void @pcc_mbox_free_channel(ptr noundef) local_unnamed_addr #1

; Function Attrs: null_pointer_is_valid
declare dso_local void @kfree(ptr noundef) local_unnamed_addr #1

; Function Attrs: null_pointer_is_valid allocsize(2)
declare dso_local noalias ptr @kmalloc_trace(ptr noundef, i32 noundef, i64 noundef) local_unnamed_addr #4

; Function Attrs: null_pointer_is_valid
declare dso_local void @complete(ptr noundef) local_unnamed_addr #1

; Function Attrs: null_pointer_is_valid
declare dso_local void @__init_swait_queue_head(ptr noundef, ptr noundef, ptr noundef) local_unnamed_addr #1

; Function Attrs: null_pointer_is_valid
declare dso_local ptr @ioremap_cache(i64 noundef, i64 noundef) local_unnamed_addr #1


!llvm.module.flags = !{!0, !1, !2, !3, !4}

!0 = !{i32 1, !"wchar_size", i32 2}
!1 = !{i32 8, !"cf-protection-branch", i32 1}
!2 = !{i32 4, !"function_return_thunk_extern", i32 1}
!3 = !{i32 4, !"indirect_branch_cs_prefix", i32 1}
!4 = !{i32 4, !"SkipRaxSetup", i32 1}
!5 = !{i8 0, i8 2}
!6 = !{}
